; Function Attrs: mustprogress nounwind uwtable
define dso_local noundef i32 @napi_add_env_cleanup_hook(ptr noundef %env, ptr noundef %fun, ptr noundef %arg) local_unnamed_addr #3 {
entry:
  %cmp = icmp eq ptr %env, null
  br i1 %cmp, label %return, label %do.body1

do.body1:                                         ; preds = %entry
  %cmp2.not = icmp eq ptr %fun, null
  br i1 %cmp2.not, label %if.then3, label %do.end5

if.then3:                                         ; preds = %do.body1
  %error_code1.i = getelementptr inbounds i8, ptr %env, i64 156
  store i32 1, ptr %error_code1.i, align 4
  %engine_error_code3.i = getelementptr inbounds i8, ptr %env, i64 152
  store i32 0, ptr %engine_error_code3.i, align 8
  %engine_reserved5.i = getelementptr inbounds i8, ptr %env, i64 144
  store ptr null, ptr %engine_reserved5.i, align 8
  br label %return

do.end5:                                          ; preds = %do.body1
  %isolate = getelementptr inbounds i8, ptr %env, i64 8
  %0 = load ptr, ptr %isolate, align 8
  tail call void @_ZN4node25AddEnvironmentCleanupHookEPN2v87IsolateEPFvPvES3_(ptr noundef %0, ptr noundef nonnull %fun, ptr noundef %arg) #21
  br label %return

return:                                           ; preds = %entry, %do.end5, %if.then3
  %retval.0 = phi i32 [ 0, %do.end5 ], [ 1, %if.then3 ], [ 1, %entry ]
  ret i32 %retval.0
}